; ModuleID = 'source-C-CXX/30/1251.c'
source_filename = "source-C-CXX/30/1251.c"
target datalayout = "e-m:e-p270:32:32-p271:32:32-p272:64:64-i64:64-f80:128-n8:16:32:64-S128"
target triple = "x86_64-pc-linux-gnu"

%struct.student = type { [20 x i8], [100 x i8], i8, i32, [10 x i8], [20 x i8], %struct.student* }

@.str = private unnamed_addr constant [3 x i8] c"%s\00", align 1
@.str.1 = private unnamed_addr constant [4 x i8] c"end\00", align 1
@.str.2 = private unnamed_addr constant [15 x i8] c"%s %c %d %s %s\00", align 1
@.str.3 = private unnamed_addr constant [19 x i8] c"%s %s %c %d %s %s\0A\00", align 1

; Function Attrs: nofree nounwind sspstrong uwtable
define dso_local %struct.student* @print() local_unnamed_addr #0 {
  %1 = tail call noalias align 16 dereferenceable_or_null(168) i8* @malloc(i64 168) #4
  %2 = bitcast i8* %1 to %struct.student*
  %3 = getelementptr inbounds %struct.student, %struct.student* %2, i64 0, i32 0, i64 0
  %4 = tail call i32 (i8*, ...) @__isoc99_scanf(i8* getelementptr inbounds ([3 x i8], [3 x i8]* @.str, i64 0, i64 0), i8* %3)
  %5 = tail call i32 @strcmp(i8* noundef nonnull dereferenceable(1) %3, i8* noundef nonnull dereferenceable(4) getelementptr inbounds ([4 x i8], [4 x i8]* @.str.1, i64 0, i64 0)) #5
  %6 = icmp eq i32 %5, 0
  br i1 %6, label %23, label %7

7:                                                ; preds = %0, %7
  %8 = phi %struct.student* [ %18, %7 ], [ %2, %0 ]
  %9 = phi %struct.student* [ %8, %7 ], [ null, %0 ]
  %10 = getelementptr inbounds %struct.student, %struct.student* %8, i64 0, i32 1, i64 0
  %11 = getelementptr inbounds %struct.student, %struct.student* %8, i64 0, i32 2
  %12 = getelementptr inbounds %struct.student, %struct.student* %8, i64 0, i32 3
  %13 = getelementptr inbounds %struct.student, %struct.student* %8, i64 0, i32 4, i64 0
  %14 = getelementptr inbounds %struct.student, %struct.student* %8, i64 0, i32 5, i64 0
  %15 = tail call i32 (i8*, ...) @__isoc99_scanf(i8* getelementptr inbounds ([15 x i8], [15 x i8]* @.str.2, i64 0, i64 0), i8* nonnull %10, i8* nonnull %11, i32* nonnull %12, i8* nonnull %13, i8* nonnull %14)
  %16 = getelementptr inbounds %struct.student, %struct.student* %8, i64 0, i32 6
  store %struct.student* %9, %struct.student** %16, align 16, !tbaa !5
  %17 = tail call noalias align 16 dereferenceable_or_null(168) i8* @malloc(i64 168) #4
  %18 = bitcast i8* %17 to %struct.student*
  %19 = getelementptr inbounds %struct.student, %struct.student* %18, i64 0, i32 0, i64 0
  %20 = tail call i32 (i8*, ...) @__isoc99_scanf(i8* getelementptr inbounds ([3 x i8], [3 x i8]* @.str, i64 0, i64 0), i8* %19)
  %21 = tail call i32 @strcmp(i8* noundef nonnull dereferenceable(1) %19, i8* noundef nonnull dereferenceable(4) getelementptr inbounds ([4 x i8], [4 x i8]* @.str.1, i64 0, i64 0)) #5
  %22 = icmp eq i32 %21, 0
  br i1 %22, label %23, label %7

23:                                               ; preds = %7, %0
  %24 = phi %struct.student* [ null, %0 ], [ %8, %7 ]
  ret %struct.student* %24
}

; Function Attrs: inaccessiblememonly mustprogress nofree nounwind willreturn
declare noalias noundef align 16 i8* @malloc(i64 noundef) local_unnamed_addr #1

; Function Attrs: nofree nounwind
declare noundef i32 @__isoc99_scanf(i8* nocapture noundef readonly, ...) local_unnamed_addr #2

; Function Attrs: argmemonly mustprogress nofree nounwind readonly willreturn
declare i32 @strcmp(i8* nocapture, i8* nocapture) local_unnamed_addr #3

; Function Attrs: nofree nounwind sspstrong uwtable
define dso_local void @main() local_unnamed_addr #0 {
  %1 = tail call %struct.student* @print()
  br label %2

2:                                                ; preds = %2, %0
  %3 = phi %struct.student* [ %1, %0 ], [ %15, %2 ]
  %4 = getelementptr inbounds %struct.student, %struct.student* %3, i64 0, i32 0, i64 0
  %5 = getelementptr inbounds %struct.student, %struct.student* %3, i64 0, i32 1, i64 0
  %6 = getelementptr inbounds %struct.student, %struct.student* %3, i64 0, i32 2
  %7 = load i8, i8* %6, align 8, !tbaa !11
  %8 = sext i8 %7 to i32
  %9 = getelementptr inbounds %struct.student, %struct.student* %3, i64 0, i32 3
  %10 = load i32, i32* %9, align 4, !tbaa !12
  %11 = getelementptr inbounds %struct.student, %struct.student* %3, i64 0, i32 4, i64 0
  %12 = getelementptr inbounds %struct.student, %struct.student* %3, i64 0, i32 5, i64 0
  %13 = tail call i32 (i8*, ...) @printf(i8* nonnull dereferenceable(1) getelementptr inbounds ([19 x i8], [19 x i8]* @.str.3, i64 0, i64 0), i8* %4, i8* nonnull %5, i32 %8, i32 %10, i8* nonnull %11, i8* nonnull %12)
  %14 = getelementptr inbounds %struct.student, %struct.student* %3, i64 0, i32 6
  %15 = load %struct.student*, %struct.student** %14, align 8, !tbaa !5
  %16 = getelementptr inbounds %struct.student, %struct.student* %15, i64 0, i32 6
  %17 = load %struct.student*, %struct.student** %16, align 8, !tbaa !5
  %18 = icmp eq %struct.student* %17, null
  br i1 %18, label %19, label %2, !llvm.loop !13

19:                                               ; preds = %2
  %20 = getelementptr inbounds %struct.student, %struct.student* %15, i64 0, i32 0, i64 0
  %21 = getelementptr inbounds %struct.student, %struct.student* %15, i64 0, i32 1, i64 0
  %22 = getelementptr inbounds %struct.student, %struct.student* %15, i64 0, i32 2
  %23 = load i8, i8* %22, align 8, !tbaa !11
  %24 = sext i8 %23 to i32
  %25 = getelementptr inbounds %struct.student, %struct.student* %15, i64 0, i32 3
  %26 = load i32, i32* %25, align 4, !tbaa !12
  %27 = getelementptr inbounds %struct.student, %struct.student* %15, i64 0, i32 4, i64 0
  %28 = getelementptr inbounds %struct.student, %struct.student* %15, i64 0, i32 5, i64 0
  %29 = tail call i32 (i8*, ...) @printf(i8* nonnull dereferenceable(1) getelementptr inbounds ([19 x i8], [19 x i8]* @.str.3, i64 0, i64 0), i8* %20, i8* nonnull %21, i32 %24, i32 %26, i8* nonnull %27, i8* nonnull %28)
  ret void
}

; Function Attrs: nofree nounwind
declare noundef i32 @printf(i8* nocapture noundef readonly, ...) local_unnamed_addr #2


!llvm.module.flags = !{!0, !1, !2, !3}
!llvm.ident = !{!4}

!0 = !{i32 1, !"wchar_size", i32 4}
!1 = !{i32 7, !"PIC Level", i32 2}
!2 = !{i32 7, !"PIE Level", i32 2}
!3 = !{i32 7, !"uwtable", i32 1}
!4 = !{!"clang version 13.0.0"}
!5 = !{!6, !10, i64 160}
!6 = !{!"student", !7, i64 0, !7, i64 20, !7, i64 120, !9, i64 124, !7, i64 128, !7, i64 138, !10, i64 160}
!7 = !{!"omnipotent char", !8, i64 0}
!8 = !{!"Simple C/C++ TBAA"}
!9 = !{!"int", !7, i64 0}
!10 = !{!"any pointer", !7, i64 0}
!11 = !{!6, !7, i64 120}
!12 = !{!6, !9, i64 124}
!13 = distinct !{!13, !14}
!14 = !{!"llvm.loop.mustprogress"}
